; Function Attrs: mustprogress uwtable
define dso_local noundef zeroext i1 @_ZNK4base13HistogramBase13SerializeInfoEPNS_6PickleE(ptr noundef nonnull align 8 dereferenceable(44) %this, ptr noundef %pickle) local_unnamed_addr #0 align 2 {
return:
  %value.addr.i = alloca i32, align 4
  %vtable = load ptr, ptr %this, align 8
  %vfn = getelementptr inbounds i8, ptr %vtable, i64 24
  %0 = load ptr, ptr %vfn, align 8
  %call = tail call noundef i32 %0(ptr noundef nonnull align 8 dereferenceable(44) %this)
  call void @llvm.lifetime.start.p0(i64 4, ptr nonnull %value.addr.i)
  store i32 %call, ptr %value.addr.i, align 4
  call void @_ZN4base6Pickle16WriteBytesStaticILm4EEEvPKv(ptr noundef nonnull align 8 dereferenceable(40) %pickle, ptr noundef nonnull %value.addr.i)
  call void @llvm.lifetime.end.p0(i64 4, ptr nonnull %value.addr.i)
  %vtable3 = load ptr, ptr %this, align 8
  %vfn4 = getelementptr inbounds i8, ptr %vtable3, i64 120
  %1 = load ptr, ptr %vfn4, align 8
  %call5 = call noundef zeroext i1 %1(ptr noundef nonnull align 8 dereferenceable(44) %this, ptr noundef nonnull %pickle)
  ret i1 %call5
}